; Function Attrs: mustprogress uwtable
define internal void @_ZN12_GLOBAL__N_117TargetSourcesImpl4JoinERKSt6vectorINSt7__cxx1112basic_stringIcSt11char_traitsIcESaIcEEESaIS7_EE(ptr dead_on_unwind noalias writable sret(%"class.std::__cxx11::basic_string") align 8 %0, ptr nocapture nonnull readnone align 8 %1, ptr nocapture noundef nonnull readonly align 8 dereferenceable(24) %2) unnamed_addr #5 align 2 {
  %4 = getelementptr inbounds i8, ptr %2, i64 8
  %5 = load ptr, ptr %4, align 8, !noalias !99
  %6 = load ptr, ptr %2, align 8, !noalias !99
  %7 = icmp eq ptr %5, %6
  br i1 %7, label %8, label %9

8:                                                ; preds = %3
  tail call void @_ZNSt7__cxx1112basic_stringIcSt11char_traitsIcESaIcEEC1Ev(ptr noundef nonnull align 8 dereferenceable(32) %0) #18
  br label %_ZN6cmList9to_stringISt6vectorINSt7__cxx1112basic_stringIcSt11char_traitsIcESaIcEEESaIS7_EETnNSt9enable_ifIXsr2cm8is_rangeIT_EE5valueEiE4typeELi0EEES7_RKSB_.exit

9:                                                ; preds = %3
  %.sroa.2.0.copyload.i = load ptr, ptr getelementptr inbounds (%"class.std::basic_string_view", ptr @_ZN6cmList17element_separatorE, i64 0, i32 1), align 8, !noalias !104
  %.sroa.0.0.copyload.i = load i64, ptr @_ZN6cmList17element_separatorE, align 8, !noalias !104
  tail call void @_ZN6cmList4JoinIN9__gnu_cxx17__normal_iteratorIPKNSt7__cxx1112basic_stringIcSt11char_traitsIcESaIcEEESt6vectorIS8_SaIS8_EEEEEES8_T_SF_St17basic_string_viewIcS6_E(ptr dead_on_unwind writable sret(%"class.std::__cxx11::basic_string") align 8 %0, ptr %6, ptr %5, i64 %.sroa.0.0.copyload.i, ptr %.sroa.2.0.copyload.i)
  br label %_ZN6cmList9to_stringISt6vectorINSt7__cxx1112basic_stringIcSt11char_traitsIcESaIcEEESaIS7_EETnNSt9enable_ifIXsr2cm8is_rangeIT_EE5valueEiE4typeELi0EEES7_RKSB_.exit

_ZN6cmList9to_stringISt6vectorINSt7__cxx1112basic_stringIcSt11char_traitsIcESaIcEEESaIS7_EETnNSt9enable_ifIXsr2cm8is_rangeIT_EE5valueEiE4typeELi0EEES7_RKSB_.exit: ; preds = %8, %9
  ret void
}